target datalayout = "e-m:e-p270:32:32-p271:32:32-p272:64:64-i64:64-i128:128-f80:128-n8:16:32:64-S128"
target triple = "x86_64-pc-linux-gnu"

%"struct.icu_77::FormattedStringBuilder::Field" = type { i8 }
%"class.icu_77::number::impl::ConstantAffixModifier" = type <{ %"class.icu_77::number::impl::Modifier", %"class.icu_77::UObject", %"class.icu_77::UnicodeString", %"class.icu_77::UnicodeString", %"struct.icu_77::FormattedStringBuilder::Field", i8, [6 x i8] }>
%"class.icu_77::number::impl::Modifier" = type { ptr }
%"class.icu_77::UObject" = type { ptr }
%"class.icu_77::UnicodeString" = type { %"class.icu_77::Replaceable", %"union.icu_77::UnicodeString::StackBufferOrFields" }
%"class.icu_77::Replaceable" = type { %"class.icu_77::UObject" }
%"union.icu_77::UnicodeString::StackBufferOrFields" = type { %struct.anon.3, [32 x i8] }
%struct.anon.3 = type { i16, i32, i32, ptr }

; Function Attrs: mustprogress uwtable
define noundef i32 @_ZNK6icu_776number4impl21ConstantAffixModifier5applyERNS_22FormattedStringBuilderEiiR10UErrorCode(ptr noundef nonnull align 8 dereferenceable(146) %0, ptr noundef nonnull align 8 dereferenceable(136) %1, i32 noundef %2, i32 noundef %3, ptr noundef nonnull align 4 dereferenceable(4) %4) unnamed_addr #2 align 2 {
  %6 = alloca ptr, align 8
  %7 = alloca ptr, align 8
  %8 = alloca i32, align 4
  %9 = alloca i32, align 4
  %10 = alloca ptr, align 8
  %11 = alloca i32, align 4
  %12 = alloca %"struct.icu_77::FormattedStringBuilder::Field", align 1
  %13 = alloca %"struct.icu_77::FormattedStringBuilder::Field", align 1
  store ptr %0, ptr %6, align 8, !tbaa !33
  store ptr %1, ptr %7, align 8, !tbaa !35
  store i32 %2, ptr %8, align 4, !tbaa !37
  store i32 %3, ptr %9, align 4, !tbaa !37
  store ptr %4, ptr %10, align 8, !tbaa !39
  %14 = load ptr, ptr %6, align 8
  call void @llvm.lifetime.start.p0(i64 4, ptr %11) #15
  %15 = load ptr, ptr %7, align 8, !tbaa !35
  %16 = load i32, ptr %9, align 4, !tbaa !37
  %17 = getelementptr inbounds nuw %"class.icu_77::number::impl::ConstantAffixModifier", ptr %14, i32 0, i32 3
  %18 = getelementptr inbounds nuw %"class.icu_77::number::impl::ConstantAffixModifier", ptr %14, i32 0, i32 4
  call void @llvm.memcpy.p0.p0.i64(ptr align 1 %12, ptr align 8 %18, i64 1, i1 false), !tbaa.struct !40
  %19 = load ptr, ptr %10, align 8, !tbaa !39
  %20 = getelementptr inbounds nuw %"struct.icu_77::FormattedStringBuilder::Field", ptr %12, i32 0, i32 0
  %21 = load i8, ptr %20, align 1
  %22 = call noundef i32 @_ZN6icu_7722FormattedStringBuilder6insertEiRKNS_13UnicodeStringENS0_5FieldER10UErrorCode(ptr noundef nonnull align 8 dereferenceable(136) %15, i32 noundef %16, ptr noundef nonnull align 8 dereferenceable(64) %17, i8 %21, ptr noundef nonnull align 4 dereferenceable(4) %19)
  store i32 %22, ptr %11, align 4, !tbaa !37
  %23 = load ptr, ptr %7, align 8, !tbaa !35
  %24 = load i32, ptr %8, align 4, !tbaa !37
  %25 = getelementptr inbounds nuw %"class.icu_77::number::impl::ConstantAffixModifier", ptr %14, i32 0, i32 2
  %26 = getelementptr inbounds nuw %"class.icu_77::number::impl::ConstantAffixModifier", ptr %14, i32 0, i32 4
  call void @llvm.memcpy.p0.p0.i64(ptr align 1 %13, ptr align 8 %26, i64 1, i1 false), !tbaa.struct !40
  %27 = load ptr, ptr %10, align 8, !tbaa !39
  %28 = getelementptr inbounds nuw %"struct.icu_77::FormattedStringBuilder::Field", ptr %13, i32 0, i32 0
  %29 = load i8, ptr %28, align 1
  %30 = call noundef i32 @_ZN6icu_7722FormattedStringBuilder6insertEiRKNS_13UnicodeStringENS0_5FieldER10UErrorCode(ptr noundef nonnull align 8 dereferenceable(136) %23, i32 noundef %24, ptr noundef nonnull align 8 dereferenceable(64) %25, i8 %29, ptr noundef nonnull align 4 dereferenceable(4) %27)
  %31 = load i32, ptr %11, align 4, !tbaa !37
  %32 = add nsw i32 %31, %30
  store i32 %32, ptr %11, align 4, !tbaa !37
  %33 = load i32, ptr %11, align 4, !tbaa !37
  call void @llvm.lifetime.end.p0(i64 4, ptr %11) #15
  ret i32 %33
}