; Function Attrs: mustprogress uwtable
define noundef i32 @_ZNK6icu_776number4impl21ConstantAffixModifier5applyERNS_22FormattedStringBuilderEiiR10UErrorCode(ptr noundef nonnull align 8 dereferenceable(146) %0, ptr noundef nonnull align 8 dereferenceable(136) %1, i32 noundef %2, i32 noundef %3, ptr noundef nonnull align 4 dereferenceable(4) %4) unnamed_addr #4 align 2 {
  %6 = getelementptr inbounds nuw i8, ptr %0, i64 80
  %7 = getelementptr inbounds nuw i8, ptr %0, i64 144
  %.sroa.01.0.copyload = load i8, ptr %7, align 8, !tbaa !21
  %8 = tail call noundef i32 @_ZN6icu_7722FormattedStringBuilder6insertEiRKNS_13UnicodeStringENS0_5FieldER10UErrorCode(ptr noundef nonnull align 8 dereferenceable(136) %1, i32 noundef %3, ptr noundef nonnull align 8 dereferenceable(64) %6, i8 %.sroa.01.0.copyload, ptr noundef nonnull align 4 dereferenceable(4) %4)
  %9 = getelementptr inbounds nuw i8, ptr %0, i64 16
  %.sroa.0.0.copyload = load i8, ptr %7, align 8, !tbaa !21
  %10 = tail call noundef i32 @_ZN6icu_7722FormattedStringBuilder6insertEiRKNS_13UnicodeStringENS0_5FieldER10UErrorCode(ptr noundef nonnull align 8 dereferenceable(136) %1, i32 noundef %2, ptr noundef nonnull align 8 dereferenceable(64) %9, i8 %.sroa.0.0.copyload, ptr noundef nonnull align 4 dereferenceable(4) %4)
  %11 = add nsw i32 %10, %8
  ret i32 %11
}